target datalayout = "e-m:e-p270:32:32-p271:32:32-p272:64:64-i64:64-i128:128-f80:128-n8:16:32:64-S128"
target triple = "x86_64-pc-linux-gnu"

%struct.par_shapes_mesh_s = type { ptr, i32, ptr, i32, ptr, ptr }

; Function Attrs: nounwind uwtable
define hidden ptr @par_shapes_create_parametric(ptr noundef %0, i32 noundef %1, i32 noundef %2, ptr noundef %3) #0 {
  %5 = alloca ptr, align 8
  %6 = alloca i32, align 4
  %7 = alloca i32, align 4
  %8 = alloca ptr, align 8
  %9 = alloca ptr, align 8
  %10 = alloca [2 x float], align 4
  %11 = alloca [3 x float], align 4
  %12 = alloca ptr, align 8
  %13 = alloca i32, align 4
  %14 = alloca i32, align 4
  %15 = alloca i32, align 4
  %16 = alloca ptr, align 8
  %17 = alloca i32, align 4
  %18 = alloca i32, align 4
  %19 = alloca i32, align 4
  %20 = alloca ptr, align 8
  %21 = alloca i32, align 4
  %22 = alloca i32, align 4
  %23 = alloca i32, align 4
  store ptr %0, ptr %5, align 8
  store i32 %1, ptr %6, align 4
  store i32 %2, ptr %7, align 4
  store ptr %3, ptr %8, align 8
  call void @llvm.lifetime.start.p0(i64 8, ptr %9) #16
  %24 = call noalias ptr @calloc(i64 noundef 48, i64 noundef 1) #21
  store ptr %24, ptr %9, align 8
  %25 = load i32, ptr %6, align 4
  %26 = add nsw i32 %25, 1
  %27 = load i32, ptr %7, align 4
  %28 = add nsw i32 %27, 1
  %29 = mul nsw i32 %26, %28
  %30 = load ptr, ptr %9, align 8
  %31 = getelementptr inbounds nuw %struct.par_shapes_mesh_s, ptr %30, i32 0, i32 1
  store i32 %29, ptr %31, align 8
  %32 = load ptr, ptr %9, align 8
  %33 = getelementptr inbounds nuw %struct.par_shapes_mesh_s, ptr %32, i32 0, i32 1
  %34 = load i32, ptr %33, align 8
  %35 = mul nsw i32 3, %34
  %36 = sext i32 %35 to i64
  %37 = mul i64 %36, 4
  %38 = call noalias ptr @calloc(i64 noundef %37, i64 noundef 1) #21
  %39 = load ptr, ptr %9, align 8
  %40 = getelementptr inbounds nuw %struct.par_shapes_mesh_s, ptr %39, i32 0, i32 0
  store ptr %38, ptr %40, align 8
  call void @llvm.lifetime.start.p0(i64 8, ptr %10) #16
  call void @llvm.lifetime.start.p0(i64 12, ptr %11) #16
  call void @llvm.lifetime.start.p0(i64 8, ptr %12) #16
  %41 = load ptr, ptr %9, align 8
  %42 = getelementptr inbounds nuw %struct.par_shapes_mesh_s, ptr %41, i32 0, i32 0
  %43 = load ptr, ptr %42, align 8
  store ptr %43, ptr %12, align 8
  call void @llvm.lifetime.start.p0(i64 4, ptr %13) #16
  store i32 0, ptr %13, align 4
  br label %44

44:                                               ; preds = %90, %4
  %45 = load i32, ptr %13, align 4
  %46 = load i32, ptr %7, align 4
  %47 = add nsw i32 %46, 1
  %48 = icmp slt i32 %45, %47
  br i1 %48, label %50, label %49

49:                                               ; preds = %44
  store i32 2, ptr %14, align 4
  call void @llvm.lifetime.end.p0(i64 4, ptr %13) #16
  br label %93

50:                                               ; preds = %44
  %51 = load i32, ptr %13, align 4
  %52 = sitofp i32 %51 to float
  %53 = load i32, ptr %7, align 4
  %54 = sitofp i32 %53 to float
  %55 = fdiv float %52, %54
  %56 = getelementptr inbounds [2 x float], ptr %10, i64 0, i64 0
  store float %55, ptr %56, align 4
  call void @llvm.lifetime.start.p0(i64 4, ptr %15) #16
  store i32 0, ptr %15, align 4
  br label %57

57:                                               ; preds = %86, %50
  %58 = load i32, ptr %15, align 4
  %59 = load i32, ptr %6, align 4
  %60 = add nsw i32 %59, 1
  %61 = icmp slt i32 %58, %60
  br i1 %61, label %63, label %62

62:                                               ; preds = %57
  store i32 5, ptr %14, align 4
  call void @llvm.lifetime.end.p0(i64 4, ptr %15) #16
  br label %89

63:                                               ; preds = %57
  %64 = load i32, ptr %15, align 4
  %65 = sitofp i32 %64 to float
  %66 = load i32, ptr %6, align 4
  %67 = sitofp i32 %66 to float
  %68 = fdiv float %65, %67
  %69 = getelementptr inbounds [2 x float], ptr %10, i64 0, i64 1
  store float %68, ptr %69, align 4
  %70 = load ptr, ptr %5, align 8
  %71 = getelementptr inbounds [2 x float], ptr %10, i64 0, i64 0
  %72 = getelementptr inbounds [3 x float], ptr %11, i64 0, i64 0
  %73 = load ptr, ptr %8, align 8
  call void %70(ptr noundef %71, ptr noundef %72, ptr noundef %73)
  %74 = getelementptr inbounds [3 x float], ptr %11, i64 0, i64 0
  %75 = load float, ptr %74, align 4
  %76 = load ptr, ptr %12, align 8
  %77 = getelementptr inbounds nuw float, ptr %76, i32 1
  store ptr %77, ptr %12, align 8
  store float %75, ptr %76, align 4
  %78 = getelementptr inbounds [3 x float], ptr %11, i64 0, i64 1
  %79 = load float, ptr %78, align 4
  %80 = load ptr, ptr %12, align 8
  %81 = getelementptr inbounds nuw float, ptr %80, i32 1
  store ptr %81, ptr %12, align 8
  store float %79, ptr %80, align 4
  %82 = getelementptr inbounds [3 x float], ptr %11, i64 0, i64 2
  %83 = load float, ptr %82, align 4
  %84 = load ptr, ptr %12, align 8
  %85 = getelementptr inbounds nuw float, ptr %84, i32 1
  store ptr %85, ptr %12, align 8
  store float %83, ptr %84, align 4
  br label %86

86:                                               ; preds = %63
  %87 = load i32, ptr %15, align 4
  %88 = add nsw i32 %87, 1
  store i32 %88, ptr %15, align 4
  br label %57

89:                                               ; preds = %62
  br label %90

90:                                               ; preds = %89
  %91 = load i32, ptr %13, align 4
  %92 = add nsw i32 %91, 1
  store i32 %92, ptr %13, align 4
  br label %44

93:                                               ; preds = %49
  %94 = load ptr, ptr %9, align 8
  %95 = getelementptr inbounds nuw %struct.par_shapes_mesh_s, ptr %94, i32 0, i32 1
  %96 = load i32, ptr %95, align 8
  %97 = mul nsw i32 2, %96
  %98 = sext i32 %97 to i64
  %99 = mul i64 %98, 4
  %100 = call noalias ptr @calloc(i64 noundef %99, i64 noundef 1) #21
  %101 = load ptr, ptr %9, align 8
  %102 = getelementptr inbounds nuw %struct.par_shapes_mesh_s, ptr %101, i32 0, i32 5
  store ptr %100, ptr %102, align 8
  call void @llvm.lifetime.start.p0(i64 8, ptr %16) #16
  %103 = load ptr, ptr %9, align 8
  %104 = getelementptr inbounds nuw %struct.par_shapes_mesh_s, ptr %103, i32 0, i32 5
  %105 = load ptr, ptr %104, align 8
  store ptr %105, ptr %16, align 8
  call void @llvm.lifetime.start.p0(i64 4, ptr %17) #16
  store i32 0, ptr %17, align 4
  br label %106

106:                                              ; preds = %144, %93
  %107 = load i32, ptr %17, align 4
  %108 = load i32, ptr %7, align 4
  %109 = add nsw i32 %108, 1
  %110 = icmp slt i32 %107, %109
  br i1 %110, label %112, label %111

111:                                              ; preds = %106
  store i32 8, ptr %14, align 4
  call void @llvm.lifetime.end.p0(i64 4, ptr %17) #16
  br label %147

112:                                              ; preds = %106
  %113 = load i32, ptr %17, align 4
  %114 = sitofp i32 %113 to float
  %115 = load i32, ptr %7, align 4
  %116 = sitofp i32 %115 to float
  %117 = fdiv float %114, %116
  %118 = getelementptr inbounds [2 x float], ptr %10, i64 0, i64 0
  store float %117, ptr %118, align 4
  call void @llvm.lifetime.start.p0(i64 4, ptr %18) #16
  store i32 0, ptr %18, align 4
  br label %119

119:                                              ; preds = %140, %112
  %120 = load i32, ptr %18, align 4
  %121 = load i32, ptr %6, align 4
  %122 = add nsw i32 %121, 1
  %123 = icmp slt i32 %120, %122
  br i1 %123, label %125, label %124

124:                                              ; preds = %119
  store i32 11, ptr %14, align 4
  call void @llvm.lifetime.end.p0(i64 4, ptr %18) #16
  br label %143

125:                                              ; preds = %119
  %126 = load i32, ptr %18, align 4
  %127 = sitofp i32 %126 to float
  %128 = load i32, ptr %6, align 4
  %129 = sitofp i32 %128 to float
  %130 = fdiv float %127, %129
  %131 = getelementptr inbounds [2 x float], ptr %10, i64 0, i64 1
  store float %130, ptr %131, align 4
  %132 = getelementptr inbounds [2 x float], ptr %10, i64 0, i64 0
  %133 = load float, ptr %132, align 4
  %134 = load ptr, ptr %16, align 8
  %135 = getelementptr inbounds nuw float, ptr %134, i32 1
  store ptr %135, ptr %16, align 8
  store float %133, ptr %134, align 4
  %136 = getelementptr inbounds [2 x float], ptr %10, i64 0, i64 1
  %137 = load float, ptr %136, align 4
  %138 = load ptr, ptr %16, align 8
  %139 = getelementptr inbounds nuw float, ptr %138, i32 1
  store ptr %139, ptr %16, align 8
  store float %137, ptr %138, align 4
  br label %140

140:                                              ; preds = %125
  %141 = load i32, ptr %18, align 4
  %142 = add nsw i32 %141, 1
  store i32 %142, ptr %18, align 4
  br label %119

143:                                              ; preds = %124
  br label %144

144:                                              ; preds = %143
  %145 = load i32, ptr %17, align 4
  %146 = add nsw i32 %145, 1
  store i32 %146, ptr %17, align 4
  br label %106

147:                                              ; preds = %111
  %148 = load i32, ptr %6, align 4
  %149 = mul nsw i32 2, %148
  %150 = load i32, ptr %7, align 4
  %151 = mul nsw i32 %149, %150
  %152 = load ptr, ptr %9, align 8
  %153 = getelementptr inbounds nuw %struct.par_shapes_mesh_s, ptr %152, i32 0, i32 3
  store i32 %151, ptr %153, align 8
  %154 = load ptr, ptr %9, align 8
  %155 = getelementptr inbounds nuw %struct.par_shapes_mesh_s, ptr %154, i32 0, i32 3
  %156 = load i32, ptr %155, align 8
  %157 = mul nsw i32 3, %156
  %158 = sext i32 %157 to i64
  %159 = mul i64 %158, 2
  %160 = call noalias ptr @calloc(i64 noundef %159, i64 noundef 1) #21
  %161 = load ptr, ptr %9, align 8
  %162 = getelementptr inbounds nuw %struct.par_shapes_mesh_s, ptr %161, i32 0, i32 2
  store ptr %160, ptr %162, align 8
  call void @llvm.lifetime.start.p0(i64 4, ptr %19) #16
  store i32 0, ptr %19, align 4
  call void @llvm.lifetime.start.p0(i64 8, ptr %20) #16
  %163 = load ptr, ptr %9, align 8
  %164 = getelementptr inbounds nuw %struct.par_shapes_mesh_s, ptr %163, i32 0, i32 2
  %165 = load ptr, ptr %164, align 8
  store ptr %165, ptr %20, align 8
  call void @llvm.lifetime.start.p0(i64 4, ptr %21) #16
  store i32 0, ptr %21, align 4
  br label %166

166:                                              ; preds = %233, %147
  %167 = load i32, ptr %21, align 4
  %168 = load i32, ptr %7, align 4
  %169 = icmp slt i32 %167, %168
  br i1 %169, label %171, label %170

170:                                              ; preds = %166
  store i32 14, ptr %14, align 4
  call void @llvm.lifetime.end.p0(i64 4, ptr %21) #16
  br label %236

171:                                              ; preds = %166
  call void @llvm.lifetime.start.p0(i64 4, ptr %22) #16
  store i32 0, ptr %22, align 4
  br label %172

172:                                              ; preds = %225, %171
  %173 = load i32, ptr %22, align 4
  %174 = load i32, ptr %6, align 4
  %175 = icmp slt i32 %173, %174
  br i1 %175, label %177, label %176

176:                                              ; preds = %172
  store i32 17, ptr %14, align 4
  call void @llvm.lifetime.end.p0(i64 4, ptr %22) #16
  br label %228

177:                                              ; preds = %172
  call void @llvm.lifetime.start.p0(i64 4, ptr %23) #16
  %178 = load i32, ptr %22, align 4
  %179 = add nsw i32 %178, 1
  store i32 %179, ptr %23, align 4
  %180 = load i32, ptr %19, align 4
  %181 = load i32, ptr %22, align 4
  %182 = add nsw i32 %180, %181
  %183 = load i32, ptr %6, align 4
  %184 = add nsw i32 %182, %183
  %185 = add nsw i32 %184, 1
  %186 = trunc i32 %185 to i16
  %187 = load ptr, ptr %20, align 8
  %188 = getelementptr inbounds nuw i16, ptr %187, i32 1
  store ptr %188, ptr %20, align 8
  store i16 %186, ptr %187, align 2
  %189 = load i32, ptr %19, align 4
  %190 = load i32, ptr %23, align 4
  %191 = add nsw i32 %189, %190
  %192 = trunc i32 %191 to i16
  %193 = load ptr, ptr %20, align 8
  %194 = getelementptr inbounds nuw i16, ptr %193, i32 1
  store ptr %194, ptr %20, align 8
  store i16 %192, ptr %193, align 2
  %195 = load i32, ptr %19, align 4
  %196 = load i32, ptr %22, align 4
  %197 = add nsw i32 %195, %196
  %198 = trunc i32 %197 to i16
  %199 = load ptr, ptr %20, align 8
  %200 = getelementptr inbounds nuw i16, ptr %199, i32 1
  store ptr %200, ptr %20, align 8
  store i16 %198, ptr %199, align 2
  %201 = load i32, ptr %19, align 4
  %202 = load i32, ptr %22, align 4
  %203 = add nsw i32 %201, %202
  %204 = load i32, ptr %6, align 4
  %205 = add nsw i32 %203, %204
  %206 = add nsw i32 %205, 1
  %207 = trunc i32 %206 to i16
  %208 = load ptr, ptr %20, align 8
  %209 = getelementptr inbounds nuw i16, ptr %208, i32 1
  store ptr %209, ptr %20, align 8
  store i16 %207, ptr %208, align 2
  %210 = load i32, ptr %19, align 4
  %211 = load i32, ptr %23, align 4
  %212 = add nsw i32 %210, %211
  %213 = load i32, ptr %6, align 4
  %214 = add nsw i32 %212, %213
  %215 = add nsw i32 %214, 1
  %216 = trunc i32 %215 to i16
  %217 = load ptr, ptr %20, align 8
  %218 = getelementptr inbounds nuw i16, ptr %217, i32 1
  store ptr %218, ptr %20, align 8
  store i16 %216, ptr %217, align 2
  %219 = load i32, ptr %19, align 4
  %220 = load i32, ptr %23, align 4
  %221 = add nsw i32 %219, %220
  %222 = trunc i32 %221 to i16
  %223 = load ptr, ptr %20, align 8
  %224 = getelementptr inbounds nuw i16, ptr %223, i32 1
  store ptr %224, ptr %20, align 8
  store i16 %222, ptr %223, align 2
  call void @llvm.lifetime.end.p0(i64 4, ptr %23) #16
  br label %225

225:                                              ; preds = %177
  %226 = load i32, ptr %22, align 4
  %227 = add nsw i32 %226, 1
  store i32 %227, ptr %22, align 4
  br label %172

228:                                              ; preds = %176
  %229 = load i32, ptr %6, align 4
  %230 = add nsw i32 %229, 1
  %231 = load i32, ptr %19, align 4
  %232 = add nsw i32 %231, %230
  store i32 %232, ptr %19, align 4
  br label %233

233:                                              ; preds = %228
  %234 = load i32, ptr %21, align 4
  %235 = add nsw i32 %234, 1
  store i32 %235, ptr %21, align 4
  br label %166

236:                                              ; preds = %170
  %237 = load ptr, ptr %9, align 8
  call void @par_shapes__compute_welded_normals(ptr noundef %237)
  %238 = load ptr, ptr %9, align 8
  store i32 1, ptr %14, align 4
  call void @llvm.lifetime.end.p0(i64 8, ptr %20) #16
  call void @llvm.lifetime.end.p0(i64 4, ptr %19) #16
  call void @llvm.lifetime.end.p0(i64 8, ptr %16) #16
  call void @llvm.lifetime.end.p0(i64 8, ptr %12) #16
  call void @llvm.lifetime.end.p0(i64 12, ptr %11) #16
  call void @llvm.lifetime.end.p0(i64 8, ptr %10) #16
  call void @llvm.lifetime.end.p0(i64 8, ptr %9) #16
  ret ptr %238
}

; Function Attrs: nounwind uwtable
define hidden ptr @par_shapes_create_plane(i32 noundef %0, i32 noundef %1) #0 {
  %3 = alloca ptr, align 8
  %4 = alloca i32, align 4
  %5 = alloca i32, align 4
  store i32 %0, ptr %4, align 4
  store i32 %1, ptr %5, align 4
  %6 = load i32, ptr %4, align 4
  %7 = icmp slt i32 %6, 1
  br i1 %7, label %11, label %8

8:                                                ; preds = %2
  %9 = load i32, ptr %5, align 4
  %10 = icmp slt i32 %9, 1
  br i1 %10, label %11, label %12

11:                                               ; preds = %8, %2
  store ptr null, ptr %3, align 8
  br label %16

12:                                               ; preds = %8
  %13 = load i32, ptr %4, align 4
  %14 = load i32, ptr %5, align 4
  %15 = call ptr @par_shapes_create_parametric(ptr noundef @par_shapes__plane, i32 noundef %13, i32 noundef %14, ptr noundef null)
  store ptr %15, ptr %3, align 8
  br label %16

16:                                               ; preds = %12, %11
  %17 = load ptr, ptr %3, align 8
  ret ptr %17
}