; Function Attrs: nounwind uwtable
define hidden noalias noundef ptr @par_shapes_create_plane(i32 noundef %0, i32 noundef %1) local_unnamed_addr #0 {
  %3 = icmp slt i32 %0, 1
  %4 = icmp slt i32 %1, 1
  %or.cond = or i1 %3, %4
  br i1 %or.cond, label %64, label %.lr.ph96.i

.lr.ph96.i:                                       ; preds = %2
  %5 = tail call noalias dereferenceable_or_null(48) ptr @calloc(i64 noundef 48, i64 noundef 1) #60
  %6 = add nuw i32 %0, 1
  %7 = add nuw i32 %1, 1
  %8 = mul nsw i32 %7, %6
  %9 = getelementptr inbounds nuw i8, ptr %5, i64 8
  store i32 %8, ptr %9, align 8
  %10 = mul nsw i32 %8, 3
  %11 = sext i32 %10 to i64
  %12 = shl nsw i64 %11, 2
  %13 = tail call noalias ptr @calloc(i64 noundef %12, i64 noundef 1) #60
  store ptr %13, ptr %5, align 8
  %14 = uitofp nneg i32 %1 to float
  %15 = uitofp nneg i32 %0 to float
  br label %.lr.ph.i

.lr.ph110.i:                                      ; preds = %._crit_edge.i
  %.pre.i = load i32, ptr %9, align 8
  %16 = shl nsw i32 %.pre.i, 1
  %17 = sext i32 %16 to i64
  %18 = shl nsw i64 %17, 2
  %19 = tail call noalias ptr @calloc(i64 noundef %18, i64 noundef 1) #60
  %20 = getelementptr inbounds nuw i8, ptr %5, i64 40
  store ptr %19, ptr %20, align 8
  %21 = sitofp i32 %0 to float
  br label %.lr.ph103.i

.lr.ph.i:                                         ; preds = %.lr.ph96.i, %._crit_edge.i
  %.094.i = phi ptr [ %30, %._crit_edge.i ], [ %13, %.lr.ph96.i ]
  %.08393.i = phi i32 [ %24, %._crit_edge.i ], [ 0, %.lr.ph96.i ]
  %22 = uitofp nneg i32 %.08393.i to float
  %23 = fdiv float %22, %14
  br label %25

._crit_edge.i:                                    ; preds = %25
  %24 = add nuw i32 %.08393.i, 1
  %exitcond130.not.i = icmp eq i32 %.08393.i, %1
  br i1 %exitcond130.not.i, label %.lr.ph110.i, label %.lr.ph.i

25:                                               ; preds = %25, %.lr.ph.i
  %.191.i = phi ptr [ %.094.i, %.lr.ph.i ], [ %30, %25 ]
  %.08290.i = phi i32 [ 0, %.lr.ph.i ], [ %31, %25 ]
  %26 = uitofp nneg i32 %.08290.i to float
  %27 = fdiv float %26, %15
  %28 = getelementptr inbounds nuw i8, ptr %.191.i, i64 4
  store float %23, ptr %.191.i, align 4
  %29 = getelementptr inbounds nuw i8, ptr %.191.i, i64 8
  store float %27, ptr %28, align 4
  %30 = getelementptr inbounds nuw i8, ptr %.191.i, i64 12
  store float 0.000000e+00, ptr %29, align 4
  %31 = add nuw i32 %.08290.i, 1
  %exitcond.not.i = icmp eq i32 %.08290.i, %0
  br i1 %exitcond.not.i, label %._crit_edge.i, label %25

.preheader.us.i.preheader:                        ; preds = %._crit_edge104.i
  %32 = shl nuw nsw i32 %0, 1
  %33 = mul nuw nsw i32 %32, %1
  %34 = getelementptr inbounds nuw i8, ptr %5, i64 24
  store i32 %33, ptr %34, align 8
  %35 = mul i32 %33, 6
  %36 = zext i32 %35 to i64
  %37 = tail call noalias ptr @calloc(i64 noundef %36, i64 noundef 1) #60
  %38 = getelementptr inbounds nuw i8, ptr %5, i64 16
  store ptr %37, ptr %38, align 8
  br label %.preheader.us.i

.preheader.us.i:                                  ; preds = %.preheader.us.i.preheader, %._crit_edge120.us.i
  %.074125.us.i = phi i32 [ %54, %._crit_edge120.us.i ], [ 0, %.preheader.us.i.preheader ]
  %.075124.us.i = phi ptr [ %53, %._crit_edge120.us.i ], [ %37, %.preheader.us.i.preheader ]
  %.077123.us.i = phi i32 [ %invariant.op115.reass.us.i, %._crit_edge120.us.i ], [ 0, %.preheader.us.i.preheader ]
  %invariant.op.us.i = add nuw i32 %.077123.us.i, %0
  %invariant.op113.us.i = add nuw i32 %.077123.us.i, 1
  %invariant.op115.reass.us.i = add i32 %.077123.us.i, %6
  br label %39

39:                                               ; preds = %39, %.preheader.us.i
  %.073118.us.i = phi i32 [ 0, %.preheader.us.i ], [ %40, %39 ]
  %.176117.us.i = phi ptr [ %.075124.us.i, %.preheader.us.i ], [ %53, %39 ]
  %40 = add nuw nsw i32 %.073118.us.i, 1
  %41 = add nuw nsw i32 %.073118.us.i, %.077123.us.i
  %.reass.us.i = add i32 %invariant.op.us.i, %.073118.us.i
  %42 = trunc i32 %.reass.us.i to i16
  %43 = add i16 %42, 1
  %44 = getelementptr inbounds nuw i8, ptr %.176117.us.i, i64 2
  store i16 %43, ptr %.176117.us.i, align 2
  %.reass114.us.i = add i32 %invariant.op113.us.i, %.073118.us.i
  %45 = trunc i32 %.reass114.us.i to i16
  %46 = getelementptr inbounds nuw i8, ptr %.176117.us.i, i64 4
  store i16 %45, ptr %44, align 2
  %47 = trunc i32 %41 to i16
  %48 = getelementptr inbounds nuw i8, ptr %.176117.us.i, i64 6
  store i16 %47, ptr %46, align 2
  %49 = getelementptr inbounds nuw i8, ptr %.176117.us.i, i64 8
  store i16 %43, ptr %48, align 2
  %.reass116.us.i = add i32 %.073118.us.i, %invariant.op115.reass.us.i
  %50 = trunc i32 %.reass116.us.i to i16
  %51 = add i16 %50, 1
  %52 = getelementptr inbounds nuw i8, ptr %.176117.us.i, i64 10
  store i16 %51, ptr %49, align 2
  %53 = getelementptr inbounds nuw i8, ptr %.176117.us.i, i64 12
  store i16 %45, ptr %52, align 2
  %exitcond133.not.i = icmp eq i32 %40, %0
  br i1 %exitcond133.not.i, label %._crit_edge120.us.i, label %39

._crit_edge120.us.i:                              ; preds = %39
  %54 = add nuw nsw i32 %.074125.us.i, 1
  %exitcond134.not.i = icmp eq i32 %54, %1
  br i1 %exitcond134.not.i, label %par_shapes_create_parametric.exit, label %.preheader.us.i

.lr.ph103.i:                                      ; preds = %.lr.ph110.i, %._crit_edge104.i
  %.079108.i = phi i32 [ %57, %._crit_edge104.i ], [ 0, %.lr.ph110.i ]
  %.080107.i = phi ptr [ %62, %._crit_edge104.i ], [ %19, %.lr.ph110.i ]
  %55 = uitofp nneg i32 %.079108.i to float
  %56 = fdiv float %55, %14
  br label %58

._crit_edge104.i:                                 ; preds = %58
  %57 = add nuw i32 %.079108.i, 1
  %exitcond132.not.i = icmp eq i32 %.079108.i, %1
  br i1 %exitcond132.not.i, label %.preheader.us.i.preheader, label %.lr.ph103.i

58:                                               ; preds = %58, %.lr.ph103.i
  %.078101.i = phi i32 [ 0, %.lr.ph103.i ], [ %63, %58 ]
  %.181100.i = phi ptr [ %.080107.i, %.lr.ph103.i ], [ %62, %58 ]
  %59 = uitofp nneg i32 %.078101.i to float
  %60 = fdiv float %59, %21
  %61 = getelementptr inbounds nuw i8, ptr %.181100.i, i64 4
  store float %56, ptr %.181100.i, align 4
  %62 = getelementptr inbounds nuw i8, ptr %.181100.i, i64 8
  store float %60, ptr %61, align 4
  %63 = add nuw i32 %.078101.i, 1
  %exitcond131.not.i = icmp eq i32 %.078101.i, %0
  br i1 %exitcond131.not.i, label %._crit_edge104.i, label %58

par_shapes_create_parametric.exit:                ; preds = %._crit_edge120.us.i
  tail call void @par_shapes__compute_welded_normals(ptr noundef nonnull %5)
  br label %64

64:                                               ; preds = %2, %par_shapes_create_parametric.exit
  %.0 = phi ptr [ %5, %par_shapes_create_parametric.exit ], [ null, %2 ]
  ret ptr %.0
}